; Function Attrs: mustprogress nofree norecurse nosync nounwind willreturn memory(read, inaccessiblemem: none) uwtable
define noundef double @_ZN5Block23desiredWeightedPositionEv(ptr noundef nonnull readonly align 8 captures(none) dereferenceable(112) %0) local_unnamed_addr #5 align 2 {
  %2 = load ptr, ptr %0, align 8, !tbaa !37
  %3 = getelementptr inbounds nuw i8, ptr %0, i64 8
  %4 = load ptr, ptr %3, align 8, !tbaa !37
  %.not11 = icmp eq ptr %2, %4
  br i1 %.not11, label %._crit_edge, label %.lr.ph

._crit_edge:                                      ; preds = %.lr.ph, %1
  %.0.lcssa = phi double [ 0.000000e+00, %1 ], [ %13, %.lr.ph ]
  ret double %.0.lcssa

.lr.ph:                                           ; preds = %1, %.lr.ph
  %.013 = phi double [ %13, %.lr.ph ], [ 0.000000e+00, %1 ]
  %.sroa.08.012 = phi ptr [ %14, %.lr.ph ], [ %2, %1 ]
  %5 = load ptr, ptr %.sroa.08.012, align 8, !tbaa !21
  %6 = getelementptr inbounds nuw i8, ptr %5, i64 8
  %7 = load double, ptr %6, align 8, !tbaa !31
  %8 = getelementptr inbounds nuw i8, ptr %5, i64 24
  %9 = load double, ptr %8, align 8, !tbaa !32
  %10 = fsub double %7, %9
  %11 = getelementptr inbounds nuw i8, ptr %5, i64 16
  %12 = load double, ptr %11, align 8, !tbaa !24
  %13 = tail call double @llvm.fmuladd.f64(double %10, double %12, double %.013)
  %14 = getelementptr inbounds nuw i8, ptr %.sroa.08.012, i64 8
  %.not = icmp eq ptr %14, %4
  br i1 %.not, label %._crit_edge, label %.lr.ph
}